target datalayout = "e-m:e-p270:32:32-p271:32:32-p272:64:64-i64:64-i128:128-f80:128-n8:16:32:64-S128"
target triple = "x86_64-pc-linux-gnu"

%struct.Fra_Cla_t_ = type { ptr, ptr, ptr, ptr, ptr, ptr, ptr, ptr, ptr, i32, i32, ptr, ptr, ptr, ptr }
%struct.Aig_Man_t_ = type { ptr, ptr, ptr, ptr, ptr, ptr, ptr, %struct.Aig_Obj_t_, i32, i32, i32, i32, i32, i32, [7 x i32], i32, ptr, i32, ptr, i32, ptr, i32, i32, i32, ptr, i32, i32, i32, i32, i32, ptr, ptr, i32, ptr, ptr, i32, ptr, ptr, i32, i32, i32, ptr, ptr, ptr, ptr, ptr, ptr, ptr, ptr, ptr, ptr, ptr, ptr, ptr, ptr, i32, ptr, ptr, ptr, ptr, i32, i64, i64, i64, ptr, ptr }
%struct.Aig_Obj_t_ = type { %union.anon, ptr, ptr, i64, i32, i32, %union.anon.0 }
%union.anon = type { ptr }
%union.anon.0 = type { ptr }
%struct.Vec_Ptr_t_ = type { i32, i32, ptr }

; Function Attrs: inlinehint nounwind uwtable
define internal i32 @Vec_PtrSize(ptr noundef %0) #4 {
  %2 = alloca ptr, align 8
  store ptr %0, ptr %2, align 8, !tbaa !36
  %3 = load ptr, ptr %2, align 8, !tbaa !36
  %4 = getelementptr inbounds nuw %struct.Vec_Ptr_t_, ptr %3, i32 0, i32 1
  %5 = load i32, ptr %4, align 4, !tbaa !37
  ret i32 %5
}

; Function Attrs: inlinehint nounwind uwtable
define internal ptr @Vec_PtrAlloc(i32 noundef %0) #4 {
  %2 = alloca i32, align 4
  %3 = alloca ptr, align 8
  store i32 %0, ptr %2, align 4, !tbaa !35
  call void @llvm.lifetime.start.p0(i64 8, ptr %3) #10
  %4 = call noalias ptr @malloc(i64 noundef 16) #11
  store ptr %4, ptr %3, align 8, !tbaa !36
  %5 = load i32, ptr %2, align 4, !tbaa !35
  %6 = icmp sgt i32 %5, 0
  br i1 %6, label %7, label %11

7:                                                ; preds = %1
  %8 = load i32, ptr %2, align 4, !tbaa !35
  %9 = icmp slt i32 %8, 8
  br i1 %9, label %10, label %11

10:                                               ; preds = %7
  store i32 8, ptr %2, align 4, !tbaa !35
  br label %11

11:                                               ; preds = %10, %7, %1
  %12 = load ptr, ptr %3, align 8, !tbaa !36
  %13 = getelementptr inbounds nuw %struct.Vec_Ptr_t_, ptr %12, i32 0, i32 1
  store i32 0, ptr %13, align 4, !tbaa !37
  %14 = load i32, ptr %2, align 4, !tbaa !35
  %15 = load ptr, ptr %3, align 8, !tbaa !36
  %16 = getelementptr inbounds nuw %struct.Vec_Ptr_t_, ptr %15, i32 0, i32 0
  store i32 %14, ptr %16, align 8, !tbaa !39
  %17 = load ptr, ptr %3, align 8, !tbaa !36
  %18 = getelementptr inbounds nuw %struct.Vec_Ptr_t_, ptr %17, i32 0, i32 0
  %19 = load i32, ptr %18, align 8, !tbaa !39
  %20 = icmp ne i32 %19, 0
  br i1 %20, label %21, label %28

21:                                               ; preds = %11
  %22 = load ptr, ptr %3, align 8, !tbaa !36
  %23 = getelementptr inbounds nuw %struct.Vec_Ptr_t_, ptr %22, i32 0, i32 0
  %24 = load i32, ptr %23, align 8, !tbaa !39
  %25 = sext i32 %24 to i64
  %26 = mul i64 8, %25
  %27 = call noalias ptr @malloc(i64 noundef %26) #11
  br label %29

28:                                               ; preds = %11
  br label %29

29:                                               ; preds = %28, %21
  %30 = phi ptr [ %27, %21 ], [ null, %28 ]
  %31 = load ptr, ptr %3, align 8, !tbaa !36
  %32 = getelementptr inbounds nuw %struct.Vec_Ptr_t_, ptr %31, i32 0, i32 2
  store ptr %30, ptr %32, align 8, !tbaa !40
  %33 = load ptr, ptr %3, align 8, !tbaa !36
  call void @llvm.lifetime.end.p0(i64 8, ptr %3) #10
  ret ptr %33
}

; Function Attrs: inlinehint nounwind uwtable
define internal i32 @Aig_ManObjNumMax(ptr noundef %0) #4 {
  %2 = alloca ptr, align 8
  store ptr %0, ptr %2, align 8, !tbaa !3
  %3 = load ptr, ptr %2, align 8, !tbaa !3
  %4 = getelementptr inbounds nuw %struct.Aig_Man_t_, ptr %3, i32 0, i32 4
  %5 = load ptr, ptr %4, align 8, !tbaa !25
  %6 = call i32 @Vec_PtrSize(ptr noundef %5)
  ret i32 %6
}

; Function Attrs: nounwind uwtable
define ptr @Fra_ClassesStart(ptr noundef %0) #0 {
  %2 = alloca ptr, align 8
  %3 = alloca ptr, align 8
  store ptr %0, ptr %2, align 8, !tbaa !3
  call void @llvm.lifetime.start.p0(i64 8, ptr %3) #10
  %4 = call noalias ptr @malloc(i64 noundef 112) #11
  store ptr %4, ptr %3, align 8, !tbaa !8
  %5 = load ptr, ptr %3, align 8, !tbaa !8
  call void @llvm.memset.p0.i64(ptr align 8 %5, i8 0, i64 112, i1 false)
  %6 = load ptr, ptr %2, align 8, !tbaa !3
  %7 = load ptr, ptr %3, align 8, !tbaa !8
  %8 = getelementptr inbounds nuw %struct.Fra_Cla_t_, ptr %7, i32 0, i32 0
  store ptr %6, ptr %8, align 8, !tbaa !10
  %9 = load ptr, ptr %2, align 8, !tbaa !3
  %10 = call i32 @Aig_ManObjNumMax(ptr noundef %9)
  %11 = sext i32 %10 to i64
  %12 = mul i64 8, %11
  %13 = call noalias ptr @malloc(i64 noundef %12) #11
  %14 = load ptr, ptr %3, align 8, !tbaa !8
  %15 = getelementptr inbounds nuw %struct.Fra_Cla_t_, ptr %14, i32 0, i32 1
  store ptr %13, ptr %15, align 8, !tbaa !16
  %16 = load ptr, ptr %3, align 8, !tbaa !8
  %17 = getelementptr inbounds nuw %struct.Fra_Cla_t_, ptr %16, i32 0, i32 1
  %18 = load ptr, ptr %17, align 8, !tbaa !16
  %19 = load ptr, ptr %2, align 8, !tbaa !3
  %20 = call i32 @Aig_ManObjNumMax(ptr noundef %19)
  %21 = sext i32 %20 to i64
  %22 = mul i64 8, %21
  call void @llvm.memset.p0.i64(ptr align 8 %18, i8 0, i64 %22, i1 false)
  %23 = call ptr @Vec_PtrAlloc(i32 noundef 100)
  %24 = load ptr, ptr %3, align 8, !tbaa !8
  %25 = getelementptr inbounds nuw %struct.Fra_Cla_t_, ptr %24, i32 0, i32 2
  store ptr %23, ptr %25, align 8, !tbaa !17
  %26 = call ptr @Vec_PtrAlloc(i32 noundef 100)
  %27 = load ptr, ptr %3, align 8, !tbaa !8
  %28 = getelementptr inbounds nuw %struct.Fra_Cla_t_, ptr %27, i32 0, i32 3
  store ptr %26, ptr %28, align 8, !tbaa !18
  %29 = call ptr @Vec_PtrAlloc(i32 noundef 100)
  %30 = load ptr, ptr %3, align 8, !tbaa !8
  %31 = getelementptr inbounds nuw %struct.Fra_Cla_t_, ptr %30, i32 0, i32 4
  store ptr %29, ptr %31, align 8, !tbaa !19
  %32 = call ptr @Vec_PtrAlloc(i32 noundef 100)
  %33 = load ptr, ptr %3, align 8, !tbaa !8
  %34 = getelementptr inbounds nuw %struct.Fra_Cla_t_, ptr %33, i32 0, i32 7
  store ptr %32, ptr %34, align 8, !tbaa !20
  %35 = call ptr @Vec_PtrAlloc(i32 noundef 100)
  %36 = load ptr, ptr %3, align 8, !tbaa !8
  %37 = getelementptr inbounds nuw %struct.Fra_Cla_t_, ptr %36, i32 0, i32 8
  store ptr %35, ptr %37, align 8, !tbaa !21
  %38 = load ptr, ptr %3, align 8, !tbaa !8
  %39 = getelementptr inbounds nuw %struct.Fra_Cla_t_, ptr %38, i32 0, i32 12
  store ptr @Fra_SmlNodeHash, ptr %39, align 8, !tbaa !22
  %40 = load ptr, ptr %3, align 8, !tbaa !8
  %41 = getelementptr inbounds nuw %struct.Fra_Cla_t_, ptr %40, i32 0, i32 13
  store ptr @Fra_SmlNodeIsConst, ptr %41, align 8, !tbaa !23
  %42 = load ptr, ptr %3, align 8, !tbaa !8
  %43 = getelementptr inbounds nuw %struct.Fra_Cla_t_, ptr %42, i32 0, i32 14
  store ptr @Fra_SmlNodesAreEqual, ptr %43, align 8, !tbaa !24
  %44 = load ptr, ptr %3, align 8, !tbaa !8
  call void @llvm.lifetime.end.p0(i64 8, ptr %3) #10
  ret ptr %44
}