; Function Attrs: mustprogress nofree nounwind willreturn memory(readwrite, argmem: read) uwtable
define noalias noundef ptr @Fra_ClassesStart(ptr noundef %0) local_unnamed_addr #0 {
  %calloc = tail call dereferenceable_or_null(112) ptr @calloc(i64 1, i64 112)
  store ptr %0, ptr %calloc, align 8, !tbaa !3
  %2 = getelementptr i8, ptr %0, i64 32
  %.val = load ptr, ptr %2, align 8, !tbaa !13
  %3 = getelementptr i8, ptr %.val, i64 4
  %.val.val = load i32, ptr %3, align 4, !tbaa !23
  %4 = sext i32 %.val.val to i64
  %5 = shl nsw i64 %4, 3
  %calloc17 = tail call ptr @calloc(i64 1, i64 %5)
  %6 = getelementptr inbounds nuw i8, ptr %calloc, i64 8
  store ptr %calloc17, ptr %6, align 8, !tbaa !25
  %7 = tail call noalias dereferenceable_or_null(16) ptr @malloc(i64 noundef 16) #17
  %8 = getelementptr inbounds nuw i8, ptr %7, i64 4
  store i32 0, ptr %8, align 4, !tbaa !23
  store i32 100, ptr %7, align 8, !tbaa !26
  %9 = tail call noalias dereferenceable_or_null(800) ptr @malloc(i64 noundef 800) #17
  %10 = getelementptr inbounds nuw i8, ptr %7, i64 8
  store ptr %9, ptr %10, align 8, !tbaa !27
  %11 = getelementptr inbounds nuw i8, ptr %calloc, i64 16
  store ptr %7, ptr %11, align 8, !tbaa !28
  %12 = tail call noalias dereferenceable_or_null(16) ptr @malloc(i64 noundef 16) #17
  %13 = getelementptr inbounds nuw i8, ptr %12, i64 4
  store i32 0, ptr %13, align 4, !tbaa !23
  store i32 100, ptr %12, align 8, !tbaa !26
  %14 = tail call noalias dereferenceable_or_null(800) ptr @malloc(i64 noundef 800) #17
  %15 = getelementptr inbounds nuw i8, ptr %12, i64 8
  store ptr %14, ptr %15, align 8, !tbaa !27
  %16 = getelementptr inbounds nuw i8, ptr %calloc, i64 24
  store ptr %12, ptr %16, align 8, !tbaa !29
  %17 = tail call noalias dereferenceable_or_null(16) ptr @malloc(i64 noundef 16) #17
  %18 = getelementptr inbounds nuw i8, ptr %17, i64 4
  store i32 0, ptr %18, align 4, !tbaa !23
  store i32 100, ptr %17, align 8, !tbaa !26
  %19 = tail call noalias dereferenceable_or_null(800) ptr @malloc(i64 noundef 800) #17
  %20 = getelementptr inbounds nuw i8, ptr %17, i64 8
  store ptr %19, ptr %20, align 8, !tbaa !27
  %21 = getelementptr inbounds nuw i8, ptr %calloc, i64 32
  store ptr %17, ptr %21, align 8, !tbaa !30
  %22 = tail call noalias dereferenceable_or_null(16) ptr @malloc(i64 noundef 16) #17
  %23 = getelementptr inbounds nuw i8, ptr %22, i64 4
  store i32 0, ptr %23, align 4, !tbaa !23
  store i32 100, ptr %22, align 8, !tbaa !26
  %24 = tail call noalias dereferenceable_or_null(800) ptr @malloc(i64 noundef 800) #17
  %25 = getelementptr inbounds nuw i8, ptr %22, i64 8
  store ptr %24, ptr %25, align 8, !tbaa !27
  %26 = getelementptr inbounds nuw i8, ptr %calloc, i64 56
  store ptr %22, ptr %26, align 8, !tbaa !31
  %27 = tail call noalias dereferenceable_or_null(16) ptr @malloc(i64 noundef 16) #17
  %28 = getelementptr inbounds nuw i8, ptr %27, i64 4
  store i32 0, ptr %28, align 4, !tbaa !23
  store i32 100, ptr %27, align 8, !tbaa !26
  %29 = tail call noalias dereferenceable_or_null(800) ptr @malloc(i64 noundef 800) #17
  %30 = getelementptr inbounds nuw i8, ptr %27, i64 8
  store ptr %29, ptr %30, align 8, !tbaa !27
  %31 = getelementptr inbounds nuw i8, ptr %calloc, i64 64
  store ptr %27, ptr %31, align 8, !tbaa !32
  %32 = getelementptr inbounds nuw i8, ptr %calloc, i64 88
  store ptr @Fra_SmlNodeHash, ptr %32, align 8, !tbaa !33
  %33 = getelementptr inbounds nuw i8, ptr %calloc, i64 96
  store ptr @Fra_SmlNodeIsConst, ptr %33, align 8, !tbaa !34
  %34 = getelementptr inbounds nuw i8, ptr %calloc, i64 104
  store ptr @Fra_SmlNodesAreEqual, ptr %34, align 8, !tbaa !35
  ret ptr %calloc
}